---
triple:          'arm64-apple-darwin'
binary-path:     '/Users/brittanylee/Documents/projects for job portfolio/Data Structure Collab project/Project1 Leonard Lee Ubaka/output/main'
relocations:
  - { offset: 0x2E37, size: 0x8, addend: 0x0, symName: __ZNSt3__124__put_character_sequenceB8ne180100IcNS_11char_traitsIcEEEERNS_13basic_ostreamIT_T0_EES7_PKS4_m, symObjAddr: 0xF10, symBinAddr: 0x100002E08, symSize: 0x1F4 }
  - { offset: 0x3CA7, size: 0x8, addend: 0x0, symName: __ZNSt3__1lsB8ne180100INS_11char_traitsIcEEEERNS_13basic_ostreamIcT_EES6_PKc, symObjAddr: 0x3E4, symBinAddr: 0x1000022DC, symSize: 0x48 }
  - { offset: 0x3CED, size: 0x8, addend: 0x0, symName: __ZNSt3__14endlB8ne180100IcNS_11char_traitsIcEEEERNS_13basic_ostreamIT_T0_EES7_, symObjAddr: 0x518, symBinAddr: 0x100002410, symSize: 0x58 }
  - { offset: 0x3D2D, size: 0x8, addend: 0x0, symName: __ZNSt3__116__pad_and_outputB8ne180100IcNS_11char_traitsIcEEEENS_19ostreambuf_iteratorIT_T0_EES6_PKS4_S8_S8_RNS_8ios_baseES4_, symObjAddr: 0x1168, symBinAddr: 0x100003060, symSize: 0x248 }
  - { offset: 0x3DFC, size: 0x8, addend: 0x0, symName: __ZNSt3__112__to_addressB8ne180100IKcEEPT_S3_, symObjAddr: 0x16E8, symBinAddr: 0x1000035E0, symSize: 0x14 }
  - { offset: 0x3E31, size: 0x8, addend: 0x0, symName: __ZNSt3__130__libcpp_is_constant_evaluatedB8ne180100Ev, symObjAddr: 0x1834, symBinAddr: 0x10000372C, symSize: 0xC }
  - { offset: 0x3E81, size: 0x8, addend: 0x0, symName: __ZNSt3__19use_facetB8ne180100INS_5ctypeIcEEEERKT_RKNS_6localeE, symObjAddr: 0x19EC, symBinAddr: 0x1000038E4, symSize: 0x2C }
  - { offset: 0x434E, size: 0x8, addend: 0x0, symName: __ZNSt3__118__constexpr_strlenB8ne180100EPKc, symObjAddr: 0x1A84, symBinAddr: 0x10000397C, symSize: 0x24 }
  - { offset: 0x5252, size: 0x8, addend: 0x0, symName: _main, symObjAddr: 0x0, symBinAddr: 0x100001EF8, symSize: 0x2D4 }
  - { offset: 0x541A, size: 0x8, addend: 0x0, symName: __ZN10linkedListIiEC1Ev, symObjAddr: 0x2D4, symBinAddr: 0x1000021CC, symSize: 0x2C }
  - { offset: 0x5444, size: 0x8, addend: 0x0, symName: __ZN10linkedListIiE7addLastEi, symObjAddr: 0x300, symBinAddr: 0x1000021F8, symSize: 0xE4 }
  - { offset: 0x548A, size: 0x8, addend: 0x0, symName: __ZN10linkedListIiE9printListEv, symObjAddr: 0x42C, symBinAddr: 0x100002324, symSize: 0xC0 }
  - { offset: 0x54CA, size: 0x8, addend: 0x0, symName: __ZNSt3__113basic_ostreamIcNS_11char_traitsIcEEElsB8ne180100EPFRS3_S4_E, symObjAddr: 0x4EC, symBinAddr: 0x1000023E4, symSize: 0x2C }
  - { offset: 0x54FC, size: 0x8, addend: 0x0, symName: __ZN10linkedListIiE5mergeERS0_, symObjAddr: 0x570, symBinAddr: 0x100002468, symSize: 0x210 }
  - { offset: 0x56AC, size: 0x8, addend: 0x0, symName: __ZN10ArrayStackIiEC1Ev, symObjAddr: 0x780, symBinAddr: 0x100002678, symSize: 0x2C }
  - { offset: 0x56D4, size: 0x8, addend: 0x0, symName: __ZN10ArrayStackIiE4pushEi, symObjAddr: 0x7AC, symBinAddr: 0x1000026A4, symSize: 0xC0 }
  - { offset: 0x5706, size: 0x8, addend: 0x0, symName: __ZN10ArrayStackIiE10printStackEv, symObjAddr: 0x86C, symBinAddr: 0x100002764, symSize: 0xCC }
  - { offset: 0x5746, size: 0x8, addend: 0x0, symName: __ZN10ArrayStackIiE6getMinEv, symObjAddr: 0x938, symBinAddr: 0x100002830, symSize: 0x114 }
  - { offset: 0x57A2, size: 0x8, addend: 0x0, symName: __ZN10ArrayStackIiE6getMaxEv, symObjAddr: 0xA4C, symBinAddr: 0x100002944, symSize: 0x114 }
  - { offset: 0x5890, size: 0x8, addend: 0x0, symName: __ZN9ListStackIiEC1Ev, symObjAddr: 0xB60, symBinAddr: 0x100002A58, symSize: 0x2C }
  - { offset: 0x58BA, size: 0x8, addend: 0x0, symName: __ZN9ListStackIiE4pushEi, symObjAddr: 0xB8C, symBinAddr: 0x100002A84, symSize: 0x2C }
  - { offset: 0x58EC, size: 0x8, addend: 0x0, symName: __ZN9ListStackIiE10printStackEv, symObjAddr: 0xBB8, symBinAddr: 0x100002AB0, symSize: 0x38 }
  - { offset: 0x5910, size: 0x8, addend: 0x0, symName: __ZN10linkedListIiE6getMinEv, symObjAddr: 0xBF0, symBinAddr: 0x100002AE8, symSize: 0xF0 }
  - { offset: 0x595E, size: 0x8, addend: 0x0, symName: __ZN10linkedListIiE6getMaxEv, symObjAddr: 0xCE0, symBinAddr: 0x100002BD8, symSize: 0xF0 }
  - { offset: 0x59AC, size: 0x8, addend: 0x0, symName: __ZN10linkedListIiEC2Ev, symObjAddr: 0xDD0, symBinAddr: 0x100002CC8, symSize: 0x20 }
  - { offset: 0x59D6, size: 0x8, addend: 0x0, symName: __ZN9ListStackIiEC2Ev, symObjAddr: 0xDF0, symBinAddr: 0x100002CE8, symSize: 0x2C }
  - { offset: 0x5A00, size: 0x8, addend: 0x0, symName: __ZN10linkedListIiE8addFirstEi, symObjAddr: 0xE1C, symBinAddr: 0x100002D14, symSize: 0x8C }
  - { offset: 0x5A40, size: 0x8, addend: 0x0, symName: __ZN10linkedListIiE4NodeC1EiPS1_, symObjAddr: 0xEA8, symBinAddr: 0x100002DA0, symSize: 0x3C }
  - { offset: 0x5A84, size: 0x8, addend: 0x0, symName: __ZN10linkedListIiE4NodeC2EiPS1_, symObjAddr: 0xEE4, symBinAddr: 0x100002DDC, symSize: 0x2C }
  - { offset: 0x5AC8, size: 0x8, addend: 0x0, symName: __ZNSt3__111char_traitsIcE6lengthB8ne180100EPKc, symObjAddr: 0x1104, symBinAddr: 0x100002FFC, symSize: 0x48 }
  - { offset: 0x5B08, size: 0x8, addend: 0x0, symName: __ZNKSt3__113basic_ostreamIcNS_11char_traitsIcEEE6sentrycvbB8ne180100Ev, symObjAddr: 0x114C, symBinAddr: 0x100003044, symSize: 0x1C }
  - { offset: 0x5B2C, size: 0x8, addend: 0x0, symName: __ZNSt3__119ostreambuf_iteratorIcNS_11char_traitsIcEEEC1B8ne180100ERNS_13basic_ostreamIcS2_EE, symObjAddr: 0x13B0, symBinAddr: 0x1000032A8, symSize: 0x34 }
  - { offset: 0x5B62, size: 0x8, addend: 0x0, symName: __ZNKSt3__18ios_base5flagsB8ne180100Ev, symObjAddr: 0x13E4, symBinAddr: 0x1000032DC, symSize: 0x18 }
  - { offset: 0x5B88, size: 0x8, addend: 0x0, symName: __ZNKSt3__19basic_iosIcNS_11char_traitsIcEEE4fillB8ne180100Ev, symObjAddr: 0x13FC, symBinAddr: 0x1000032F4, symSize: 0x64 }
  - { offset: 0x5BAE, size: 0x8, addend: 0x0, symName: __ZNKSt3__119ostreambuf_iteratorIcNS_11char_traitsIcEEE6failedB8ne180100Ev, symObjAddr: 0x1460, symBinAddr: 0x100003358, symSize: 0x24 }
  - { offset: 0x5BD2, size: 0x8, addend: 0x0, symName: __ZNSt3__19basic_iosIcNS_11char_traitsIcEEE8setstateB8ne180100Ej, symObjAddr: 0x1484, symBinAddr: 0x10000337C, symSize: 0x2C }
  - { offset: 0x5C05, size: 0x8, addend: 0x0, symName: __ZNKSt3__18ios_base5widthB8ne180100Ev, symObjAddr: 0x14C0, symBinAddr: 0x1000033B8, symSize: 0x18 }
  - { offset: 0x5C2B, size: 0x8, addend: 0x0, symName: __ZNSt3__115basic_streambufIcNS_11char_traitsIcEEE5sputnB8ne180100EPKcl, symObjAddr: 0x14D8, symBinAddr: 0x1000033D0, symSize: 0x3C }
  - { offset: 0x5C6B, size: 0x8, addend: 0x0, symName: __ZNSt3__112basic_stringIcNS_11char_traitsIcEENS_9allocatorIcEEEC1B8ne180100Emc, symObjAddr: 0x1514, symBinAddr: 0x10000340C, symSize: 0x3C }
  - { offset: 0x5CB1, size: 0x8, addend: 0x0, symName: __ZNKSt3__112basic_stringIcNS_11char_traitsIcEENS_9allocatorIcEEE4dataB8ne180100Ev, symObjAddr: 0x1550, symBinAddr: 0x100003448, symSize: 0x28 }
  - { offset: 0x5CD5, size: 0x8, addend: 0x0, symName: __ZNSt3__18ios_base5widthB8ne180100El, symObjAddr: 0x1578, symBinAddr: 0x100003470, symSize: 0x2C }
  - { offset: 0x5D19, size: 0x8, addend: 0x0, symName: __ZNSt3__112basic_stringIcNS_11char_traitsIcEENS_9allocatorIcEEEC2B8ne180100Emc, symObjAddr: 0x15A4, symBinAddr: 0x10000349C, symSize: 0x4C }
  - { offset: 0x5D64, size: 0x8, addend: 0x0, symName: __ZNSt3__117__compressed_pairINS_12basic_stringIcNS_11char_traitsIcEENS_9allocatorIcEEE5__repES5_EC1B8ne180100INS_18__default_init_tagESA_EEOT_OT0_, symObjAddr: 0x15F0, symBinAddr: 0x1000034E8, symSize: 0x3C }
  - { offset: 0x5DBA, size: 0x8, addend: 0x0, symName: __ZNSt3__117__compressed_pairINS_12basic_stringIcNS_11char_traitsIcEENS_9allocatorIcEEE5__repES5_EC2B8ne180100INS_18__default_init_tagESA_EEOT_OT0_, symObjAddr: 0x162C, symBinAddr: 0x100003524, symSize: 0x3C }
  - { offset: 0x5E10, size: 0x8, addend: 0x0, symName: __ZNSt3__122__compressed_pair_elemINS_12basic_stringIcNS_11char_traitsIcEENS_9allocatorIcEEE5__repELi0ELb0EEC2B8ne180100ENS_18__default_init_tagE, symObjAddr: 0x1668, symBinAddr: 0x100003560, symSize: 0x14 }
  - { offset: 0x5E42, size: 0x8, addend: 0x0, symName: __ZNSt3__122__compressed_pair_elemINS_9allocatorIcEELi1ELb1EEC2B8ne180100ENS_18__default_init_tagE, symObjAddr: 0x167C, symBinAddr: 0x100003574, symSize: 0x2C }
  - { offset: 0x5E74, size: 0x8, addend: 0x0, symName: __ZNSt3__19allocatorIcEC2B8ne180100Ev, symObjAddr: 0x16A8, symBinAddr: 0x1000035A0, symSize: 0x2C }
  - { offset: 0x5E9C, size: 0x8, addend: 0x0, symName: __ZNSt3__116__non_trivial_ifILb1ENS_9allocatorIcEEEC2B8ne180100Ev, symObjAddr: 0x16D4, symBinAddr: 0x1000035CC, symSize: 0x14 }
  - { offset: 0x5EC4, size: 0x8, addend: 0x0, symName: __ZNKSt3__112basic_stringIcNS_11char_traitsIcEENS_9allocatorIcEEE13__get_pointerB8ne180100Ev, symObjAddr: 0x16FC, symBinAddr: 0x1000035F4, symSize: 0x54 }
  - { offset: 0x5EE8, size: 0x8, addend: 0x0, symName: __ZNKSt3__112basic_stringIcNS_11char_traitsIcEENS_9allocatorIcEEE9__is_longB8ne180100Ev, symObjAddr: 0x1750, symBinAddr: 0x100003648, symSize: 0x94 }
  - { offset: 0x5F0C, size: 0x8, addend: 0x0, symName: __ZNKSt3__112basic_stringIcNS_11char_traitsIcEENS_9allocatorIcEEE18__get_long_pointerB8ne180100Ev, symObjAddr: 0x17E4, symBinAddr: 0x1000036DC, symSize: 0x28 }
  - { offset: 0x5F30, size: 0x8, addend: 0x0, symName: __ZNKSt3__112basic_stringIcNS_11char_traitsIcEENS_9allocatorIcEEE19__get_short_pointerB8ne180100Ev, symObjAddr: 0x180C, symBinAddr: 0x100003704, symSize: 0x28 }
  - { offset: 0x5F54, size: 0x8, addend: 0x0, symName: __ZNKSt3__117__compressed_pairINS_12basic_stringIcNS_11char_traitsIcEENS_9allocatorIcEEE5__repES5_E5firstB8ne180100Ev, symObjAddr: 0x1840, symBinAddr: 0x100003738, symSize: 0x24 }
  - { offset: 0x5F78, size: 0x8, addend: 0x0, symName: __ZNKSt3__122__compressed_pair_elemINS_12basic_stringIcNS_11char_traitsIcEENS_9allocatorIcEEE5__repELi0ELb0EE5__getB8ne180100Ev, symObjAddr: 0x1864, symBinAddr: 0x10000375C, symSize: 0x14 }
  - { offset: 0x5F9C, size: 0x8, addend: 0x0, symName: __ZNSt3__114pointer_traitsIPKcE10pointer_toB8ne180100ERS1_, symObjAddr: 0x1878, symBinAddr: 0x100003770, symSize: 0x14 }
  - { offset: 0x5FBE, size: 0x8, addend: 0x0, symName: __ZNSt3__119ostreambuf_iteratorIcNS_11char_traitsIcEEEC2B8ne180100ERNS_13basic_ostreamIcS2_EE, symObjAddr: 0x188C, symBinAddr: 0x100003784, symSize: 0x68 }
  - { offset: 0x5FF4, size: 0x8, addend: 0x0, symName: __ZNKSt3__19basic_iosIcNS_11char_traitsIcEEE5rdbufB8ne180100Ev, symObjAddr: 0x18F4, symBinAddr: 0x1000037EC, symSize: 0x24 }
  - { offset: 0x601A, size: 0x8, addend: 0x0, symName: __ZNKSt3__18ios_base5rdbufB8ne180100Ev, symObjAddr: 0x1918, symBinAddr: 0x100003810, symSize: 0x18 }
  - { offset: 0x603E, size: 0x8, addend: 0x0, symName: __ZNSt3__111char_traitsIcE11eq_int_typeB8ne180100Eii, symObjAddr: 0x1930, symBinAddr: 0x100003828, symSize: 0x28 }
  - { offset: 0x6070, size: 0x8, addend: 0x0, symName: __ZNSt3__111char_traitsIcE3eofB8ne180100Ev, symObjAddr: 0x1958, symBinAddr: 0x100003850, symSize: 0x8 }
  - { offset: 0x6083, size: 0x8, addend: 0x0, symName: __ZNKSt3__19basic_iosIcNS_11char_traitsIcEEE5widenB8ne180100Ec, symObjAddr: 0x1960, symBinAddr: 0x100003858, symSize: 0x8C }
  - { offset: 0x60FA, size: 0x8, addend: 0x0, symName: __ZNKSt3__15ctypeIcE5widenB8ne180100Ec, symObjAddr: 0x1A18, symBinAddr: 0x100003910, symSize: 0x38 }
  - { offset: 0x612D, size: 0x8, addend: 0x0, symName: __ZNSt3__18ios_base8setstateB8ne180100Ej, symObjAddr: 0x1A50, symBinAddr: 0x100003948, symSize: 0x34 }
  - { offset: 0x6162, size: 0x8, addend: 0x0, symName: __ZN10ArrayStackIiEC2Ev, symObjAddr: 0x1AA8, symBinAddr: 0x1000039A0, symSize: 0x70 }
  - { offset: 0x618A, size: 0x8, addend: 0x0, symName: __ZN10ArrayStackIiE7isEmptyEv, symObjAddr: 0x1B18, symBinAddr: 0x100003A10, symSize: 0x24 }
...
